; Function Attrs: mustprogress nounwind uwtable
define dso_local noundef ptr @LLVMDIBuilderCreateEnumerationType(ptr noundef nonnull %0, ptr noundef %1, ptr noundef %2, i64 noundef %3, ptr noundef %4, i32 noundef %5, i64 noundef %6, i32 noundef %7, ptr noundef %8, i32 noundef %9, ptr noundef %10) local_unnamed_addr #0 {
  %12 = alloca %"class.llvm::StringRef", align 8
  %13 = zext i32 %9 to i64
  %14 = tail call ptr @_ZN4llvm9DIBuilder16getOrCreateArrayENS_8ArrayRefIPNS_8MetadataEEE(ptr noundef nonnull align 8 dereferenceable(416) %0, ptr %8, i64 %13) #15
  store ptr @.str.8, ptr %12, align 8
  %15 = getelementptr inbounds nuw i8, ptr %12, i64 8
  store i64 0, ptr %15, align 8
  %16 = ptrtoint ptr %14 to i64
  %17 = tail call noundef ptr @_ZN4llvm9DIBuilder21createEnumerationTypeEPNS_7DIScopeENS_9StringRefEPNS_6DIFileEjmjNS_24MDTupleTypedArrayWrapperINS_6DINodeEEEPNS_6DITypeEjS3_b(ptr noundef nonnull align 8 dereferenceable(416) %0, ptr noundef %1, ptr %2, i64 %3, ptr noundef %4, i32 noundef %5, i64 noundef %6, i32 noundef %7, i64 %16, ptr noundef %10, i32 noundef 0, ptr noundef nonnull byval(%"class.llvm::StringRef") align 8 %12, i1 noundef zeroext false) #15
  ret ptr %17
}